target datalayout = "e-m:e-p270:32:32-p271:32:32-p272:64:64-i64:64-i128:128-f80:128-n8:16:32:64-S128"
target triple = "x86_64-pc-linux-gnu"

%struct.scale_factors = type { i32, i32, i32, i32, ptr, ptr }
%struct.buf_2d = type { ptr, ptr, i32, i32, i32 }
%struct.macroblockd_plane = type { i8, i32, i32, %struct.buf_2d, [2 x %struct.buf_2d], ptr, ptr, [8 x [2 x i16]], ptr, i8, i8, [8 x [19 x ptr]], [8 x [19 x ptr]] }
%struct.yv12_buffer_config = type { %union.anon, %union.anon.0, %union.anon.2, %union.anon.4, %union.anon.6, %union.anon.8, i32, [3 x ptr], ptr, i32, ptr, i64, i32, i64, i32, i32, i32, i32, i32, i32, i8, i32, i32, i32, i32, i32, i32, ptr }
%union.anon = type { %struct.anon }
%struct.anon = type { i32, i32 }
%union.anon.0 = type { %struct.anon.1 }
%struct.anon.1 = type { i32, i32 }
%union.anon.2 = type { %struct.anon.3 }
%struct.anon.3 = type { i32, i32 }
%union.anon.4 = type { %struct.anon.5 }
%struct.anon.5 = type { i32, i32 }
%union.anon.6 = type { %struct.anon.7 }
%struct.anon.7 = type { i32, i32 }
%union.anon.8 = type { %struct.anon.9 }
%struct.anon.9 = type { ptr, ptr, ptr }

@mi_size_high = internal constant [22 x i8] c"\01\02\01\02\04\02\04\08\04\08\10\08\10 \10 \04\01\08\02\10\04", align 16
@mi_size_wide = internal constant [22 x i8] c"\01\01\02\02\02\04\04\04\08\08\08\10\10\10  \01\04\02\08\04\10", align 16

; Function Attrs: nounwind uwtable
define internal i64 @scaled_buffer_offset(i32 noundef %0, i32 noundef %1, i32 noundef %2, ptr noundef %3) #0 {
  %5 = alloca i32, align 4
  %6 = alloca i32, align 4
  %7 = alloca i32, align 4
  %8 = alloca ptr, align 8
  %9 = alloca i32, align 4
  %10 = alloca i32, align 4
  store i32 %0, ptr %5, align 4
  store i32 %1, ptr %6, align 4
  store i32 %2, ptr %7, align 4
  store ptr %3, ptr %8, align 8
  %11 = load ptr, ptr %8, align 8
  %12 = icmp ne ptr %11, null
  br i1 %12, label %13, label %21

13:                                               ; preds = %4
  %14 = load ptr, ptr %8, align 8
  %15 = getelementptr inbounds nuw %struct.scale_factors, ptr %14, i32 0, i32 4
  %16 = load ptr, ptr %15, align 8
  %17 = load i32, ptr %5, align 4
  %18 = load ptr, ptr %8, align 8
  %19 = call i32 %16(i32 noundef %17, ptr noundef %18)
  %20 = ashr i32 %19, 6
  br label %23

21:                                               ; preds = %4
  %22 = load i32, ptr %5, align 4
  br label %23

23:                                               ; preds = %21, %13
  %24 = phi i32 [ %20, %13 ], [ %22, %21 ]
  store i32 %24, ptr %9, align 4
  %25 = load ptr, ptr %8, align 8
  %26 = icmp ne ptr %25, null
  br i1 %26, label %27, label %35

27:                                               ; preds = %23
  %28 = load ptr, ptr %8, align 8
  %29 = getelementptr inbounds nuw %struct.scale_factors, ptr %28, i32 0, i32 5
  %30 = load ptr, ptr %29, align 8
  %31 = load i32, ptr %6, align 4
  %32 = load ptr, ptr %8, align 8
  %33 = call i32 %30(i32 noundef %31, ptr noundef %32)
  %34 = ashr i32 %33, 6
  br label %37

35:                                               ; preds = %23
  %36 = load i32, ptr %6, align 4
  br label %37

37:                                               ; preds = %35, %27
  %38 = phi i32 [ %34, %27 ], [ %36, %35 ]
  store i32 %38, ptr %10, align 4
  %39 = load i32, ptr %10, align 4
  %40 = sext i32 %39 to i64
  %41 = load i32, ptr %7, align 4
  %42 = sext i32 %41 to i64
  %43 = mul nsw i64 %40, %42
  %44 = load i32, ptr %9, align 4
  %45 = sext i32 %44 to i64
  %46 = add nsw i64 %43, %45
  ret i64 %46
}

; Function Attrs: nounwind uwtable
define internal void @setup_pred_plane(ptr noundef %0, i8 noundef zeroext %1, ptr noundef %2, i32 noundef %3, i32 noundef %4, i32 noundef %5, i32 noundef %6, i32 noundef %7, ptr noundef %8, i32 noundef %9, i32 noundef %10) #0 {
  %12 = alloca ptr, align 8
  %13 = alloca i8, align 1
  %14 = alloca ptr, align 8
  %15 = alloca i32, align 4
  %16 = alloca i32, align 4
  %17 = alloca i32, align 4
  %18 = alloca i32, align 4
  %19 = alloca i32, align 4
  %20 = alloca ptr, align 8
  %21 = alloca i32, align 4
  %22 = alloca i32, align 4
  %23 = alloca i32, align 4
  %24 = alloca i32, align 4
  store ptr %0, ptr %12, align 8
  store i8 %1, ptr %13, align 1
  store ptr %2, ptr %14, align 8
  store i32 %3, ptr %15, align 4
  store i32 %4, ptr %16, align 4
  store i32 %5, ptr %17, align 4
  store i32 %6, ptr %18, align 4
  store i32 %7, ptr %19, align 4
  store ptr %8, ptr %20, align 8
  store i32 %9, ptr %21, align 4
  store i32 %10, ptr %22, align 4
  %25 = load i32, ptr %22, align 4
  %26 = icmp ne i32 %25, 0
  br i1 %26, label %27, label %41

27:                                               ; preds = %11
  %28 = load i32, ptr %18, align 4
  %29 = and i32 %28, 1
  %30 = icmp ne i32 %29, 0
  br i1 %30, label %31, label %41

31:                                               ; preds = %27
  %32 = load i8, ptr %13, align 1
  %33 = zext i8 %32 to i64
  %34 = getelementptr inbounds [22 x i8], ptr @mi_size_high, i64 0, i64 %33
  %35 = load i8, ptr %34, align 1
  %36 = zext i8 %35 to i32
  %37 = icmp eq i32 %36, 1
  br i1 %37, label %38, label %41

38:                                               ; preds = %31
  %39 = load i32, ptr %18, align 4
  %40 = sub nsw i32 %39, 1
  store i32 %40, ptr %18, align 4
  br label %41

41:                                               ; preds = %38, %31, %27, %11
  %42 = load i32, ptr %21, align 4
  %43 = icmp ne i32 %42, 0
  br i1 %43, label %44, label %58

44:                                               ; preds = %41
  %45 = load i32, ptr %19, align 4
  %46 = and i32 %45, 1
  %47 = icmp ne i32 %46, 0
  br i1 %47, label %48, label %58

48:                                               ; preds = %44
  %49 = load i8, ptr %13, align 1
  %50 = zext i8 %49 to i64
  %51 = getelementptr inbounds [22 x i8], ptr @mi_size_wide, i64 0, i64 %50
  %52 = load i8, ptr %51, align 1
  %53 = zext i8 %52 to i32
  %54 = icmp eq i32 %53, 1
  br i1 %54, label %55, label %58

55:                                               ; preds = %48
  %56 = load i32, ptr %19, align 4
  %57 = sub nsw i32 %56, 1
  store i32 %57, ptr %19, align 4
  br label %58

58:                                               ; preds = %55, %48, %44, %41
  %59 = load i32, ptr %19, align 4
  %60 = mul nsw i32 4, %59
  %61 = load i32, ptr %21, align 4
  %62 = ashr i32 %60, %61
  store i32 %62, ptr %23, align 4
  %63 = load i32, ptr %18, align 4
  %64 = mul nsw i32 4, %63
  %65 = load i32, ptr %22, align 4
  %66 = ashr i32 %64, %65
  store i32 %66, ptr %24, align 4
  %67 = load ptr, ptr %14, align 8
  %68 = load i32, ptr %23, align 4
  %69 = load i32, ptr %24, align 4
  %70 = load i32, ptr %17, align 4
  %71 = load ptr, ptr %20, align 8
  %72 = call i64 @scaled_buffer_offset(i32 noundef %68, i32 noundef %69, i32 noundef %70, ptr noundef %71)
  %73 = getelementptr inbounds i8, ptr %67, i64 %72
  %74 = load ptr, ptr %12, align 8
  %75 = getelementptr inbounds nuw %struct.buf_2d, ptr %74, i32 0, i32 0
  store ptr %73, ptr %75, align 8
  %76 = load ptr, ptr %14, align 8
  %77 = load ptr, ptr %12, align 8
  %78 = getelementptr inbounds nuw %struct.buf_2d, ptr %77, i32 0, i32 1
  store ptr %76, ptr %78, align 8
  %79 = load i32, ptr %15, align 4
  %80 = load ptr, ptr %12, align 8
  %81 = getelementptr inbounds nuw %struct.buf_2d, ptr %80, i32 0, i32 2
  store i32 %79, ptr %81, align 8
  %82 = load i32, ptr %16, align 4
  %83 = load ptr, ptr %12, align 8
  %84 = getelementptr inbounds nuw %struct.buf_2d, ptr %83, i32 0, i32 3
  store i32 %82, ptr %84, align 4
  %85 = load i32, ptr %17, align 4
  %86 = load ptr, ptr %12, align 8
  %87 = getelementptr inbounds nuw %struct.buf_2d, ptr %86, i32 0, i32 4
  store i32 %85, ptr %87, align 8
  ret void
}

; Function Attrs: nounwind uwtable
define hidden void @av1_setup_dst_planes(ptr noundef %0, i8 noundef zeroext %1, ptr noundef %2, i32 noundef %3, i32 noundef %4, i32 noundef %5, i32 noundef %6) #0 {
  %8 = alloca ptr, align 8
  %9 = alloca i8, align 1
  %10 = alloca ptr, align 8
  %11 = alloca i32, align 4
  %12 = alloca i32, align 4
  %13 = alloca i32, align 4
  %14 = alloca i32, align 4
  %15 = alloca i32, align 4
  %16 = alloca ptr, align 8
  %17 = alloca i32, align 4
  store ptr %0, ptr %8, align 8
  store i8 %1, ptr %9, align 1
  store ptr %2, ptr %10, align 8
  store i32 %3, ptr %11, align 4
  store i32 %4, ptr %12, align 4
  store i32 %5, ptr %13, align 4
  store i32 %6, ptr %14, align 4
  %18 = load i32, ptr %13, align 4
  store i32 %18, ptr %15, align 4
  br label %19

19:                                               ; preds = %72, %7
  %20 = load i32, ptr %15, align 4
  %21 = load i32, ptr %14, align 4
  %22 = icmp slt i32 %21, 3
  br i1 %22, label %23, label %25

23:                                               ; preds = %19
  %24 = load i32, ptr %14, align 4
  br label %26

25:                                               ; preds = %19
  br label %26

26:                                               ; preds = %25, %23
  %27 = phi i32 [ %24, %23 ], [ 3, %25 ]
  %28 = icmp slt i32 %20, %27
  br i1 %28, label %29, label %75

29:                                               ; preds = %26
  %30 = load ptr, ptr %8, align 8
  %31 = load i32, ptr %15, align 4
  %32 = sext i32 %31 to i64
  %33 = getelementptr inbounds %struct.macroblockd_plane, ptr %30, i64 %32
  store ptr %33, ptr %16, align 8
  %34 = load i32, ptr %15, align 4
  %35 = icmp sgt i32 %34, 0
  %36 = zext i1 %35 to i32
  store i32 %36, ptr %17, align 4
  %37 = load ptr, ptr %16, align 8
  %38 = getelementptr inbounds nuw %struct.macroblockd_plane, ptr %37, i32 0, i32 3
  %39 = load i8, ptr %9, align 1
  %40 = load ptr, ptr %10, align 8
  %41 = getelementptr inbounds nuw %struct.yv12_buffer_config, ptr %40, i32 0, i32 5
  %42 = load i32, ptr %15, align 4
  %43 = sext i32 %42 to i64
  %44 = getelementptr inbounds [3 x ptr], ptr %41, i64 0, i64 %43
  %45 = load ptr, ptr %44, align 8
  %46 = load ptr, ptr %10, align 8
  %47 = getelementptr inbounds nuw %struct.yv12_buffer_config, ptr %46, i32 0, i32 2
  %48 = load i32, ptr %17, align 4
  %49 = sext i32 %48 to i64
  %50 = getelementptr inbounds [2 x i32], ptr %47, i64 0, i64 %49
  %51 = load i32, ptr %50, align 4
  %52 = load ptr, ptr %10, align 8
  %53 = getelementptr inbounds nuw %struct.yv12_buffer_config, ptr %52, i32 0, i32 3
  %54 = load i32, ptr %17, align 4
  %55 = sext i32 %54 to i64
  %56 = getelementptr inbounds [2 x i32], ptr %53, i64 0, i64 %55
  %57 = load i32, ptr %56, align 4
  %58 = load ptr, ptr %10, align 8
  %59 = getelementptr inbounds nuw %struct.yv12_buffer_config, ptr %58, i32 0, i32 4
  %60 = load i32, ptr %17, align 4
  %61 = sext i32 %60 to i64
  %62 = getelementptr inbounds [2 x i32], ptr %59, i64 0, i64 %61
  %63 = load i32, ptr %62, align 4
  %64 = load i32, ptr %11, align 4
  %65 = load i32, ptr %12, align 4
  %66 = load ptr, ptr %16, align 8
  %67 = getelementptr inbounds nuw %struct.macroblockd_plane, ptr %66, i32 0, i32 1
  %68 = load i32, ptr %67, align 4
  %69 = load ptr, ptr %16, align 8
  %70 = getelementptr inbounds nuw %struct.macroblockd_plane, ptr %69, i32 0, i32 2
  %71 = load i32, ptr %70, align 8
  call void @setup_pred_plane(ptr noundef %38, i8 noundef zeroext %39, ptr noundef %45, i32 noundef %51, i32 noundef %57, i32 noundef %63, i32 noundef %64, i32 noundef %65, ptr noundef null, i32 noundef %68, i32 noundef %71)
  br label %72

72:                                               ; preds = %29
  %73 = load i32, ptr %15, align 4
  %74 = add nsw i32 %73, 1
  store i32 %74, ptr %15, align 4
  br label %19, !llvm.loop !24

75:                                               ; preds = %26
  ret void
}