; Function Attrs: nofree norecurse nosync nounwind memory(argmem: readwrite) uwtable
define hidden void @av1_setup_dst_planes(ptr nocapture noundef %0, i8 noundef zeroext %1, ptr nocapture noundef readonly %2, i32 noundef %3, i32 noundef %4, i32 noundef %5, i32 noundef %6) local_unnamed_addr #7 {
  %8 = tail call i32 @llvm.smin.i32(i32 %6, i32 3)
  %9 = icmp slt i32 %5, %8
  br i1 %9, label %.lr.ph, label %._crit_edge

.lr.ph:                                           ; preds = %7
  %10 = getelementptr inbounds nuw i8, ptr %2, i64 40
  %11 = getelementptr inbounds nuw i8, ptr %2, i64 16
  %12 = getelementptr inbounds nuw i8, ptr %2, i64 24
  %13 = getelementptr inbounds nuw i8, ptr %2, i64 32
  %14 = and i32 %3, 1
  %.not26.i = icmp eq i32 %14, 0
  %15 = zext nneg i8 %1 to i64
  %16 = shl nuw i64 1, %15
  %17 = and i64 %16, 131077
  %.not27.i = icmp ne i64 %17, 0
  %18 = sext i1 %.not27.i to i32
  %spec.select.i = add nsw i32 %3, %18
  %19 = and i32 %4, 1
  %.not29.i = icmp eq i32 %19, 0
  %20 = and i64 %16, 65539
  %.not30.i = icmp ne i64 %20, 0
  %21 = sext i1 %.not30.i to i32
  %spec.select32.i = add nsw i32 %4, %21
  br i1 %.not26.i, label %.lr.ph.split.us, label %.lr.ph.split

.lr.ph.split.us:                                  ; preds = %.lr.ph
  %22 = shl nsw i32 %3, 2
  br i1 %.not29.i, label %.lr.ph.split.us.split.us, label %.lr.ph.split.us.split.preheader

.lr.ph.split.us.split.preheader:                  ; preds = %.lr.ph.split.us
  %23 = sext i32 %5 to i64
  %wide.trip.count42 = sext i32 %8 to i64
  br label %.lr.ph.split.us.split

.lr.ph.split.us.split.us:                         ; preds = %.lr.ph.split.us
  %24 = shl nsw i32 %4, 2
  %25 = sext i32 %5 to i64
  %wide.trip.count47 = sext i32 %8 to i64
  br label %setup_pred_plane.exit.us.us

setup_pred_plane.exit.us.us:                      ; preds = %setup_pred_plane.exit.us.us, %.lr.ph.split.us.split.us
  %indvars.iv44 = phi i64 [ %indvars.iv.next45, %setup_pred_plane.exit.us.us ], [ %25, %.lr.ph.split.us.split.us ]
  %26 = getelementptr inbounds %struct.macroblockd_plane, ptr %0, i64 %indvars.iv44
  %27 = icmp sgt i64 %indvars.iv44, 0
  %28 = getelementptr inbounds nuw i8, ptr %26, i64 16
  %29 = getelementptr inbounds [3 x ptr], ptr %10, i64 0, i64 %indvars.iv44
  %30 = load ptr, ptr %29, align 8
  %31 = zext i1 %27 to i64
  %32 = getelementptr inbounds [2 x i32], ptr %11, i64 0, i64 %31
  %33 = load i32, ptr %32, align 4
  %34 = getelementptr inbounds [2 x i32], ptr %12, i64 0, i64 %31
  %35 = load i32, ptr %34, align 4
  %36 = getelementptr inbounds [2 x i32], ptr %13, i64 0, i64 %31
  %37 = load i32, ptr %36, align 4
  %38 = getelementptr inbounds nuw i8, ptr %26, i64 4
  %39 = load i32, ptr %38, align 4
  %40 = getelementptr inbounds nuw i8, ptr %26, i64 8
  %41 = load i32, ptr %40, align 8
  %42 = ashr i32 %24, %39
  %43 = ashr i32 %22, %41
  %44 = sext i32 %43 to i64
  %45 = sext i32 %37 to i64
  %46 = mul nsw i64 %44, %45
  %47 = sext i32 %42 to i64
  %48 = getelementptr i8, ptr %30, i64 %46
  %49 = getelementptr i8, ptr %48, i64 %47
  store ptr %49, ptr %28, align 8
  %50 = getelementptr inbounds i8, ptr %26, i64 24
  store ptr %30, ptr %50, align 8
  %51 = getelementptr inbounds i8, ptr %26, i64 32
  store i32 %33, ptr %51, align 8
  %52 = getelementptr inbounds i8, ptr %26, i64 36
  store i32 %35, ptr %52, align 4
  %53 = getelementptr inbounds i8, ptr %26, i64 40
  store i32 %37, ptr %53, align 8
  %indvars.iv.next45 = add nsw i64 %indvars.iv44, 1
  %exitcond48.not = icmp eq i64 %indvars.iv.next45, %wide.trip.count47
  br i1 %exitcond48.not, label %._crit_edge, label %setup_pred_plane.exit.us.us, !llvm.loop !36

.lr.ph.split.us.split:                            ; preds = %.lr.ph.split.us.split.preheader, %.lr.ph.split.us.split
  %indvars.iv39 = phi i64 [ %23, %.lr.ph.split.us.split.preheader ], [ %indvars.iv.next40, %.lr.ph.split.us.split ]
  %54 = getelementptr inbounds %struct.macroblockd_plane, ptr %0, i64 %indvars.iv39
  %55 = icmp sgt i64 %indvars.iv39, 0
  %56 = getelementptr inbounds nuw i8, ptr %54, i64 16
  %57 = getelementptr inbounds [3 x ptr], ptr %10, i64 0, i64 %indvars.iv39
  %58 = load ptr, ptr %57, align 8
  %59 = zext i1 %55 to i64
  %60 = getelementptr inbounds [2 x i32], ptr %11, i64 0, i64 %59
  %61 = load i32, ptr %60, align 4
  %62 = getelementptr inbounds [2 x i32], ptr %12, i64 0, i64 %59
  %63 = load i32, ptr %62, align 4
  %64 = getelementptr inbounds [2 x i32], ptr %13, i64 0, i64 %59
  %65 = load i32, ptr %64, align 4
  %66 = getelementptr inbounds nuw i8, ptr %54, i64 4
  %67 = load i32, ptr %66, align 4
  %68 = getelementptr inbounds nuw i8, ptr %54, i64 8
  %69 = load i32, ptr %68, align 8
  %.not28.i.us = icmp eq i32 %67, 0
  %spec.select = select i1 %.not28.i.us, i32 %4, i32 %spec.select32.i
  %70 = shl nsw i32 %spec.select, 2
  %71 = ashr i32 %70, %67
  %72 = ashr i32 %22, %69
  %73 = sext i32 %72 to i64
  %74 = sext i32 %65 to i64
  %75 = mul nsw i64 %73, %74
  %76 = sext i32 %71 to i64
  %77 = getelementptr i8, ptr %58, i64 %75
  %78 = getelementptr i8, ptr %77, i64 %76
  store ptr %78, ptr %56, align 8
  %79 = getelementptr inbounds i8, ptr %54, i64 24
  store ptr %58, ptr %79, align 8
  %80 = getelementptr inbounds i8, ptr %54, i64 32
  store i32 %61, ptr %80, align 8
  %81 = getelementptr inbounds i8, ptr %54, i64 36
  store i32 %63, ptr %81, align 4
  %82 = getelementptr inbounds i8, ptr %54, i64 40
  store i32 %65, ptr %82, align 8
  %indvars.iv.next40 = add nsw i64 %indvars.iv39, 1
  %exitcond43.not = icmp eq i64 %indvars.iv.next40, %wide.trip.count42
  br i1 %exitcond43.not, label %._crit_edge, label %.lr.ph.split.us.split, !llvm.loop !36

.lr.ph.split:                                     ; preds = %.lr.ph
  br i1 %.not29.i, label %.lr.ph.split.split.us, label %.lr.ph.split.split.preheader

.lr.ph.split.split.preheader:                     ; preds = %.lr.ph.split
  %83 = sext i32 %5 to i64
  %wide.trip.count = sext i32 %8 to i64
  br label %.lr.ph.split.split

.lr.ph.split.split.us:                            ; preds = %.lr.ph.split
  %84 = shl nsw i32 %4, 2
  %85 = sext i32 %5 to i64
  %wide.trip.count37 = sext i32 %8 to i64
  br label %setup_pred_plane.exit.us26

setup_pred_plane.exit.us26:                       ; preds = %setup_pred_plane.exit.us26, %.lr.ph.split.split.us
  %indvars.iv34 = phi i64 [ %indvars.iv.next35, %setup_pred_plane.exit.us26 ], [ %85, %.lr.ph.split.split.us ]
  %86 = getelementptr inbounds %struct.macroblockd_plane, ptr %0, i64 %indvars.iv34
  %87 = icmp sgt i64 %indvars.iv34, 0
  %88 = getelementptr inbounds nuw i8, ptr %86, i64 16
  %89 = getelementptr inbounds [3 x ptr], ptr %10, i64 0, i64 %indvars.iv34
  %90 = load ptr, ptr %89, align 8
  %91 = zext i1 %87 to i64
  %92 = getelementptr inbounds [2 x i32], ptr %11, i64 0, i64 %91
  %93 = load i32, ptr %92, align 4
  %94 = getelementptr inbounds [2 x i32], ptr %12, i64 0, i64 %91
  %95 = load i32, ptr %94, align 4
  %96 = getelementptr inbounds [2 x i32], ptr %13, i64 0, i64 %91
  %97 = load i32, ptr %96, align 4
  %98 = getelementptr inbounds nuw i8, ptr %86, i64 4
  %99 = load i32, ptr %98, align 4
  %100 = getelementptr inbounds nuw i8, ptr %86, i64 8
  %101 = load i32, ptr %100, align 8
  %.not.i.us = icmp eq i32 %101, 0
  %spec.select28 = select i1 %.not.i.us, i32 %3, i32 %spec.select.i
  %102 = ashr i32 %84, %99
  %103 = shl nsw i32 %spec.select28, 2
  %104 = ashr i32 %103, %101
  %105 = sext i32 %104 to i64
  %106 = sext i32 %97 to i64
  %107 = mul nsw i64 %105, %106
  %108 = sext i32 %102 to i64
  %109 = getelementptr i8, ptr %90, i64 %107
  %110 = getelementptr i8, ptr %109, i64 %108
  store ptr %110, ptr %88, align 8
  %111 = getelementptr inbounds i8, ptr %86, i64 24
  store ptr %90, ptr %111, align 8
  %112 = getelementptr inbounds i8, ptr %86, i64 32
  store i32 %93, ptr %112, align 8
  %113 = getelementptr inbounds i8, ptr %86, i64 36
  store i32 %95, ptr %113, align 4
  %114 = getelementptr inbounds i8, ptr %86, i64 40
  store i32 %97, ptr %114, align 8
  %indvars.iv.next35 = add nsw i64 %indvars.iv34, 1
  %exitcond38.not = icmp eq i64 %indvars.iv.next35, %wide.trip.count37
  br i1 %exitcond38.not, label %._crit_edge, label %setup_pred_plane.exit.us26, !llvm.loop !36

.lr.ph.split.split:                               ; preds = %.lr.ph.split.split.preheader, %.lr.ph.split.split
  %indvars.iv = phi i64 [ %83, %.lr.ph.split.split.preheader ], [ %indvars.iv.next, %.lr.ph.split.split ]
  %115 = getelementptr inbounds %struct.macroblockd_plane, ptr %0, i64 %indvars.iv
  %116 = icmp sgt i64 %indvars.iv, 0
  %117 = getelementptr inbounds nuw i8, ptr %115, i64 16
  %118 = getelementptr inbounds [3 x ptr], ptr %10, i64 0, i64 %indvars.iv
  %119 = load ptr, ptr %118, align 8
  %120 = zext i1 %116 to i64
  %121 = getelementptr inbounds [2 x i32], ptr %11, i64 0, i64 %120
  %122 = load i32, ptr %121, align 4
  %123 = getelementptr inbounds [2 x i32], ptr %12, i64 0, i64 %120
  %124 = load i32, ptr %123, align 4
  %125 = getelementptr inbounds [2 x i32], ptr %13, i64 0, i64 %120
  %126 = load i32, ptr %125, align 4
  %127 = getelementptr inbounds nuw i8, ptr %115, i64 4
  %128 = load i32, ptr %127, align 4
  %129 = getelementptr inbounds nuw i8, ptr %115, i64 8
  %130 = load i32, ptr %129, align 8
  %.not.i = icmp eq i32 %130, 0
  %spec.select29 = select i1 %.not.i, i32 %3, i32 %spec.select.i
  %.not28.i = icmp eq i32 %128, 0
  %.025.i = select i1 %.not28.i, i32 %4, i32 %spec.select32.i
  %131 = shl nsw i32 %.025.i, 2
  %132 = ashr i32 %131, %128
  %133 = shl nsw i32 %spec.select29, 2
  %134 = ashr i32 %133, %130
  %135 = sext i32 %134 to i64
  %136 = sext i32 %126 to i64
  %137 = mul nsw i64 %135, %136
  %138 = sext i32 %132 to i64
  %139 = getelementptr i8, ptr %119, i64 %137
  %140 = getelementptr i8, ptr %139, i64 %138
  store ptr %140, ptr %117, align 8
  %141 = getelementptr inbounds i8, ptr %115, i64 24
  store ptr %119, ptr %141, align 8
  %142 = getelementptr inbounds i8, ptr %115, i64 32
  store i32 %122, ptr %142, align 8
  %143 = getelementptr inbounds i8, ptr %115, i64 36
  store i32 %124, ptr %143, align 4
  %144 = getelementptr inbounds i8, ptr %115, i64 40
  store i32 %126, ptr %144, align 8
  %indvars.iv.next = add nsw i64 %indvars.iv, 1
  %exitcond.not = icmp eq i64 %indvars.iv.next, %wide.trip.count
  br i1 %exitcond.not, label %._crit_edge, label %.lr.ph.split.split, !llvm.loop !36

._crit_edge:                                      ; preds = %.lr.ph.split.split, %setup_pred_plane.exit.us26, %.lr.ph.split.us.split, %setup_pred_plane.exit.us.us, %7
  ret void
}